; ModuleID = '55/1585.c'
source_filename = "55/1585.c"
target datalayout = "e-m:e-p270:32:32-p271:32:32-p272:64:64-i64:64-f80:128-n8:16:32:64-S128"
target triple = "x86_64-pc-linux-gnu"

@.str = private unnamed_addr constant [7 x i8] c"%d%s%d\00", align 1
@.str.1 = private unnamed_addr constant [3 x i8] c"%s\00", align 1

; Function Attrs: noinline nounwind uwtable
define dso_local i32 @main() #0 {
  %1 = alloca i32, align 4
  %2 = alloca i32, align 4
  %3 = alloca i32, align 4
  %4 = alloca i32, align 4
  %5 = alloca i32, align 4
  %6 = alloca i32, align 4
  %7 = alloca i32, align 4
  %8 = alloca [30 x i8], align 16
  %9 = alloca [30 x i8], align 16
  %10 = alloca [30 x i8], align 16
  %11 = alloca i64, align 8
  store i32 0, i32* %1, align 4
  %12 = getelementptr inbounds [30 x i8], [30 x i8]* %8, i64 0, i64 0
  %13 = call i32 (i8*, ...) @__isoc99_scanf(i8* getelementptr inbounds ([7 x i8], [7 x i8]* @.str, i64 0, i64 0), i32* %2, i8* %12, i32* %3)
  store i32 1, i32* %5, align 4
  %14 = getelementptr inbounds [30 x i8], [30 x i8]* %8, i64 0, i64 0
  %15 = call i64 @strlen(i8* %14) #3
  %16 = trunc i64 %15 to i32
  store i32 %16, i32* %7, align 4
  store i64 0, i64* %11, align 8
  %17 = load i32, i32* %7, align 4
  %18 = sub nsw i32 %17, 1
  store i32 %18, i32* %4, align 4
  br label %19

19:                                               ; preds = %99, %0
  %20 = load i32, i32* %4, align 4
  %21 = icmp sge i32 %20, 0
  br i1 %21, label %22, label %102

22:                                               ; preds = %19
  %23 = load i32, i32* %4, align 4
  %24 = sext i32 %23 to i64
  %25 = getelementptr inbounds [30 x i8], [30 x i8]* %8, i64 0, i64 %24
  %26 = load i8, i8* %25, align 1
  %27 = sext i8 %26 to i32
  %28 = icmp sge i32 %27, 65
  br i1 %28, label %29, label %44

29:                                               ; preds = %22
  %30 = load i32, i32* %4, align 4
  %31 = sext i32 %30 to i64
  %32 = getelementptr inbounds [30 x i8], [30 x i8]* %8, i64 0, i64 %31
  %33 = load i8, i8* %32, align 1
  %34 = sext i8 %33 to i32
  %35 = icmp sle i32 %34, 90
  br i1 %35, label %36, label %44

36:                                               ; preds = %29
  %37 = load i32, i32* %4, align 4
  %38 = sext i32 %37 to i64
  %39 = getelementptr inbounds [30 x i8], [30 x i8]* %8, i64 0, i64 %38
  %40 = load i8, i8* %39, align 1
  %41 = sext i8 %40 to i32
  %42 = add nsw i32 %41, 10
  %43 = sub nsw i32 %42, 65
  store i32 %43, i32* %6, align 4
  br label %89

44:                                               ; preds = %29, %22
  %45 = load i32, i32* %4, align 4
  %46 = sext i32 %45 to i64
  %47 = getelementptr inbounds [30 x i8], [30 x i8]* %8, i64 0, i64 %46
  %48 = load i8, i8* %47, align 1
  %49 = sext i8 %48 to i32
  %50 = icmp sge i32 %49, 97
  br i1 %50, label %51, label %66

51:                                               ; preds = %44
  %52 = load i32, i32* %4, align 4
  %53 = sext i32 %52 to i64
  %54 = getelementptr inbounds [30 x i8], [30 x i8]* %8, i64 0, i64 %53
  %55 = load i8, i8* %54, align 1
  %56 = sext i8 %55 to i32
  %57 = icmp sle i32 %56, 122
  br i1 %57, label %58, label %66

58:                                               ; preds = %51
  %59 = load i32, i32* %4, align 4
  %60 = sext i32 %59 to i64
  %61 = getelementptr inbounds [30 x i8], [30 x i8]* %8, i64 0, i64 %60
  %62 = load i8, i8* %61, align 1
  %63 = sext i8 %62 to i32
  %64 = add nsw i32 %63, 10
  %65 = sub nsw i32 %64, 97
  store i32 %65, i32* %6, align 4
  br label %88

66:                                               ; preds = %51, %44
  %67 = load i32, i32* %4, align 4
  %68 = sext i32 %67 to i64
  %69 = getelementptr inbounds [30 x i8], [30 x i8]* %8, i64 0, i64 %68
  %70 = load i8, i8* %69, align 1
  %71 = sext i8 %70 to i32
  %72 = icmp sge i32 %71, 48
  br i1 %72, label %73, label %87

73:                                               ; preds = %66
  %74 = load i32, i32* %4, align 4
  %75 = sext i32 %74 to i64
  %76 = getelementptr inbounds [30 x i8], [30 x i8]* %8, i64 0, i64 %75
  %77 = load i8, i8* %76, align 1
  %78 = sext i8 %77 to i32
  %79 = icmp sle i32 %78, 57
  br i1 %79, label %80, label %87

80:                                               ; preds = %73
  %81 = load i32, i32* %4, align 4
  %82 = sext i32 %81 to i64
  %83 = getelementptr inbounds [30 x i8], [30 x i8]* %8, i64 0, i64 %82
  %84 = load i8, i8* %83, align 1
  %85 = sext i8 %84 to i32
  %86 = sub nsw i32 %85, 48
  store i32 %86, i32* %6, align 4
  br label %87

87:                                               ; preds = %80, %73, %66
  br label %88

88:                                               ; preds = %87, %58
  br label %89

89:                                               ; preds = %88, %36
  %90 = load i32, i32* %5, align 4
  %91 = load i32, i32* %6, align 4
  %92 = mul nsw i32 %90, %91
  %93 = sext i32 %92 to i64
  %94 = load i64, i64* %11, align 8
  %95 = add nsw i64 %94, %93
  store i64 %95, i64* %11, align 8
  %96 = load i32, i32* %2, align 4
  %97 = load i32, i32* %5, align 4
  %98 = mul nsw i32 %97, %96
  store i32 %98, i32* %5, align 4
  br label %99

99:                                               ; preds = %89
  %100 = load i32, i32* %4, align 4
  %101 = add nsw i32 %100, -1
  store i32 %101, i32* %4, align 4
  br label %19

102:                                              ; preds = %19
  store i32 0, i32* %4, align 4
  br label %103

103:                                              ; preds = %119, %102
  %104 = load i64, i64* %11, align 8
  %105 = icmp sgt i64 %104, 0
  br i1 %105, label %106, label %122

106:                                              ; preds = %103
  %107 = load i64, i64* %11, align 8
  %108 = load i32, i32* %3, align 4
  %109 = sext i32 %108 to i64
  %110 = srem i64 %107, %109
  %111 = trunc i64 %110 to i8
  %112 = load i32, i32* %4, align 4
  %113 = sext i32 %112 to i64
  %114 = getelementptr inbounds [30 x i8], [30 x i8]* %9, i64 0, i64 %113
  store i8 %111, i8* %114, align 1
  %115 = load i32, i32* %3, align 4
  %116 = sext i32 %115 to i64
  %117 = load i64, i64* %11, align 8
  %118 = sdiv i64 %117, %116
  store i64 %118, i64* %11, align 8
  br label %119

119:                                              ; preds = %106
  %120 = load i32, i32* %4, align 4
  %121 = add nsw i32 %120, 1
  store i32 %121, i32* %4, align 4
  br label %103

122:                                              ; preds = %103
  store i32 0, i32* %5, align 4
  br label %123

123:                                              ; preds = %180, %122
  %124 = load i32, i32* %5, align 4
  %125 = load i32, i32* %4, align 4
  %126 = icmp slt i32 %124, %125
  br i1 %126, label %127, label %183

127:                                              ; preds = %123
  %128 = load i32, i32* %4, align 4
  %129 = load i32, i32* %5, align 4
  %130 = sub nsw i32 %128, %129
  %131 = sub nsw i32 %130, 1
  %132 = sext i32 %131 to i64
  %133 = getelementptr inbounds [30 x i8], [30 x i8]* %9, i64 0, i64 %132
  %134 = load i8, i8* %133, align 1
  %135 = load i32, i32* %5, align 4
  %136 = sext i32 %135 to i64
  %137 = getelementptr inbounds [30 x i8], [30 x i8]* %10, i64 0, i64 %136
  store i8 %134, i8* %137, align 1
  %138 = load i32, i32* %5, align 4
  %139 = sext i32 %138 to i64
  %140 = getelementptr inbounds [30 x i8], [30 x i8]* %10, i64 0, i64 %139
  %141 = load i8, i8* %140, align 1
  %142 = sext i8 %141 to i32
  %143 = icmp sge i32 %142, 0
  br i1 %143, label %144, label %159

144:                                              ; preds = %127
  %145 = load i32, i32* %5, align 4
  %146 = sext i32 %145 to i64
  %147 = getelementptr inbounds [30 x i8], [30 x i8]* %10, i64 0, i64 %146
  %148 = load i8, i8* %147, align 1
  %149 = sext i8 %148 to i32
  %150 = icmp slt i32 %149, 10
  br i1 %150, label %151, label %159

151:                                              ; preds = %144
  %152 = load i32, i32* %5, align 4
  %153 = sext i32 %152 to i64
  %154 = getelementptr inbounds [30 x i8], [30 x i8]* %10, i64 0, i64 %153
  %155 = load i8, i8* %154, align 1
  %156 = sext i8 %155 to i32
  %157 = add nsw i32 %156, 48
  %158 = trunc i32 %157 to i8
  store i8 %158, i8* %154, align 1
  br label %179

159:                                              ; preds = %144, %127
  %160 = load i32, i32* %5, align 4
  %161 = sext i32 %160 to i64
  %162 = getelementptr inbounds [30 x i8], [30 x i8]* %10, i64 0, i64 %161
  %163 = load i8, i8* %162, align 1
  %164 = sext i8 %163 to i32
  %165 = icmp sge i32 %164, 10
  br i1 %165, label %166, label %178

166:                                              ; preds = %159
  %167 = load i32, i32* %5, align 4
  %168 = sext i32 %167 to i64
  %169 = getelementptr inbounds [30 x i8], [30 x i8]* %10, i64 0, i64 %168
  %170 = load i8, i8* %169, align 1
  %171 = sext i8 %170 to i32
  %172 = sub nsw i32 %171, 10
  %173 = add nsw i32 %172, 65
  %174 = trunc i32 %173 to i8
  %175 = load i32, i32* %5, align 4
  %176 = sext i32 %175 to i64
  %177 = getelementptr inbounds [30 x i8], [30 x i8]* %10, i64 0, i64 %176
  store i8 %174, i8* %177, align 1
  br label %178

178:                                              ; preds = %166, %159
  br label %179

179:                                              ; preds = %178, %151
  br label %180

180:                                              ; preds = %179
  %181 = load i32, i32* %5, align 4
  %182 = add nsw i32 %181, 1
  store i32 %182, i32* %5, align 4
  br label %123

183:                                              ; preds = %123
  %184 = load i32, i32* %4, align 4
  %185 = sext i32 %184 to i64
  %186 = getelementptr inbounds [30 x i8], [30 x i8]* %10, i64 0, i64 %185
  store i8 0, i8* %186, align 1
  %187 = getelementptr inbounds [30 x i8], [30 x i8]* %10, i64 0, i64 0
  %188 = load i8, i8* %187, align 16
  %189 = sext i8 %188 to i32
  %190 = icmp eq i32 %189, 0
  br i1 %190, label %191, label %194

191:                                              ; preds = %183
  %192 = getelementptr inbounds [30 x i8], [30 x i8]* %10, i64 0, i64 0
  store i8 48, i8* %192, align 16
  %193 = getelementptr inbounds [30 x i8], [30 x i8]* %10, i64 0, i64 1
  store i8 0, i8* %193, align 1
  br label %194

194:                                              ; preds = %191, %183
  %195 = getelementptr inbounds [30 x i8], [30 x i8]* %10, i64 0, i64 0
  %196 = call i32 (i8*, ...) @printf(i8* getelementptr inbounds ([3 x i8], [3 x i8]* @.str.1, i64 0, i64 0), i8* %195)
  ret i32 0
}

declare dso_local i32 @__isoc99_scanf(i8*, ...) #1

; Function Attrs: nounwind readonly
declare dso_local i64 @strlen(i8*) #2

declare dso_local i32 @printf(i8*, ...) #1


!llvm.module.flags = !{!0}
!llvm.ident = !{!1}

!0 = !{i32 1, !"wchar_size", i32 4}
!1 = !{!"clang version 10.0.0-4ubuntu1 "}
